; Function Attrs: mustprogress nofree norecurse nounwind willreturn memory(readwrite, inaccessiblemem: none) uwtable
define noundef i64 @_ZN8facebook5velox5cache19AsyncDataCacheEntry11setPrefetchEb(ptr nocapture noundef nonnull align 8 dereferenceable(169) %this, i1 noundef zeroext %flag) local_unnamed_addr #7 align 2 {
entry:
  %frombool = zext i1 %flag to i8
  %isPrefetch_ = getelementptr inbounds i8, ptr %this, i64 128
  store i8 %frombool, ptr %isPrefetch_, align 8
  %size_ = getelementptr inbounds i8, ptr %this, i64 112
  %0 = load i32, ptr %size_, align 8
  %conv = sext i32 %0 to i64
  %add.i = add nsw i64 %conv, 4095
  %div.i3 = lshr i64 %add.i, 12
  %shard_ = getelementptr inbounds i8, ptr %this, i64 24
  %1 = load ptr, ptr %shard_, align 8
  %2 = load ptr, ptr %1, align 8
  %sub = sub nsw i64 0, %div.i3
  %cond = select i1 %flag, i64 %div.i3, i64 %sub
  %prefetchPages_.i = getelementptr inbounds i8, ptr %2, i64 64
  %3 = atomicrmw add ptr %prefetchPages_.i, i64 %cond seq_cst, align 8
  %add.i4 = add i64 %cond, %3
  ret i64 %add.i4
}